; Function Attrs: mustprogress uwtable
define void @_ZN2cv9videostab28KeypointBasedMotionEstimator8estimateERKNS_3MatES4_Pb(ptr dead_on_unwind noalias writable sret(%"class.cv::Mat") align 8 %0, ptr noundef nonnull align 8 dereferenceable(320) %1, ptr noundef nonnull align 8 dereferenceable(96) %2, ptr noundef nonnull align 8 dereferenceable(96) %3, ptr noundef %4) unnamed_addr #3 align 2 personality ptr @__gxx_personality_v0 {
  %6 = alloca %"class.cv::_InputArray", align 8
  %7 = alloca %"class.cv::_InputArray", align 8
  %8 = getelementptr inbounds i8, ptr %6, i64 16
  store i32 0, ptr %8, align 8
  %9 = getelementptr inbounds i8, ptr %6, i64 20
  store i32 0, ptr %9, align 4
  store i32 16842752, ptr %6, align 8
  %10 = getelementptr inbounds i8, ptr %6, i64 8
  store ptr %2, ptr %10, align 8
  %11 = getelementptr inbounds i8, ptr %7, i64 16
  store i32 0, ptr %11, align 8
  %12 = getelementptr inbounds i8, ptr %7, i64 20
  store i32 0, ptr %12, align 4
  store i32 16842752, ptr %7, align 8
  %13 = getelementptr inbounds i8, ptr %7, i64 8
  store ptr %3, ptr %13, align 8
  call void @_ZN2cv9videostab28KeypointBasedMotionEstimator8estimateERKNS_11_InputArrayES4_Pb(ptr dead_on_unwind writable sret(%"class.cv::Mat") align 8 %0, ptr noundef nonnull align 8 dereferenceable(320) %1, ptr noundef nonnull align 8 dereferenceable(24) %6, ptr noundef nonnull align 8 dereferenceable(24) %7, ptr noundef %4)
  ret void
}